; Function Attrs: nounwind uwtable
define internal fastcc range(i32 -30, 1) i32 @set_timefilter_pathname_mbs(ptr noundef %0, i32 noundef %1, ptr noundef readonly %2) unnamed_addr #0 {
  %4 = alloca %struct.stat, align 8
  call void @llvm.lifetime.start.p0(i64 144, ptr nonnull %4) #14
  %5 = icmp eq ptr %2, null
  br i1 %5, label %9, label %6

6:                                                ; preds = %3
  %7 = load i8, ptr %2, align 1, !tbaa !84
  %8 = icmp eq i8 %7, 0
  br i1 %8, label %9, label %10

9:                                                ; preds = %6, %3
  tail call void (ptr, i32, ptr, ...) @archive_set_error(ptr noundef %0, i32 noundef 22, ptr noundef nonnull @.str.42) #14
  br label %set_timefilter_stat.exit

10:                                               ; preds = %6
  %11 = call i32 @stat(ptr noundef nonnull %2, ptr noundef nonnull %4) #14
  %.not = icmp eq i32 %11, 0
  br i1 %.not, label %15, label %12

12:                                               ; preds = %10
  %13 = tail call ptr @__errno_location() #15
  %14 = load i32, ptr %13, align 4, !tbaa !51
  tail call void (ptr, i32, ptr, ...) @archive_set_error(ptr noundef %0, i32 noundef %14, ptr noundef nonnull @.str.43) #14
  br label %set_timefilter_stat.exit

15:                                               ; preds = %10
  %16 = tail call ptr @archive_entry_new() #14
  %17 = icmp eq ptr %16, null
  br i1 %17, label %18, label %20

18:                                               ; preds = %15
  tail call void (ptr, i32, ptr, ...) @archive_set_error(ptr noundef %0, i32 noundef 12, ptr noundef nonnull @.str.32) #14
  %19 = getelementptr inbounds nuw i8, ptr %0, i64 4
  store i32 32768, ptr %19, align 4, !tbaa !27
  br label %set_timefilter_stat.exit

20:                                               ; preds = %15
  call void @archive_entry_copy_stat(ptr noundef nonnull %16, ptr noundef nonnull %4) #14
  %21 = call i64 @archive_entry_ctime(ptr noundef nonnull %16) #14
  %22 = call i64 @archive_entry_ctime_nsec(ptr noundef nonnull %16) #14
  %23 = call i64 @archive_entry_mtime(ptr noundef nonnull %16) #14
  %24 = call i64 @archive_entry_mtime_nsec(ptr noundef nonnull %16) #14
  call void @archive_entry_free(ptr noundef nonnull %16) #14
  %25 = and i32 %1, 256
  %.not.i.i = icmp eq i32 %25, 0
  br i1 %.not.i.i, label %48, label %26

26:                                               ; preds = %20
  %27 = and i32 %1, 1
  %.not37.i.i = icmp ne i32 %27, 0
  %28 = and i32 %1, 18
  %29 = icmp eq i32 %28, 16
  %or.cond.i.i = or i1 %.not37.i.i, %29
  br i1 %or.cond.i.i, label %30, label %37

30:                                               ; preds = %26
  %31 = getelementptr inbounds nuw i8, ptr %0, i64 240
  store i32 %1, ptr %31, align 8, !tbaa !64
  %32 = getelementptr inbounds nuw i8, ptr %0, i64 248
  store i64 %23, ptr %32, align 8, !tbaa !65
  %33 = getelementptr inbounds nuw i8, ptr %0, i64 256
  store i64 %24, ptr %33, align 8, !tbaa !66
  %34 = getelementptr inbounds nuw i8, ptr %0, i64 144
  %35 = load i32, ptr %34, align 8, !tbaa !48
  %36 = or i32 %35, 2
  store i32 %36, ptr %34, align 8, !tbaa !48
  br label %37

37:                                               ; preds = %30, %26
  %38 = and i32 %1, 2
  %.not38.i.i = icmp ne i32 %38, 0
  %39 = and i32 %1, 17
  %40 = icmp eq i32 %39, 16
  %or.cond44.i.i = or i1 %.not38.i.i, %40
  br i1 %or.cond44.i.i, label %41, label %48

41:                                               ; preds = %37
  %42 = getelementptr inbounds nuw i8, ptr %0, i64 288
  store i32 %1, ptr %42, align 8, !tbaa !67
  %43 = getelementptr inbounds nuw i8, ptr %0, i64 296
  store i64 %23, ptr %43, align 8, !tbaa !68
  %44 = getelementptr inbounds nuw i8, ptr %0, i64 304
  store i64 %24, ptr %44, align 8, !tbaa !69
  %45 = getelementptr inbounds nuw i8, ptr %0, i64 144
  %46 = load i32, ptr %45, align 8, !tbaa !48
  %47 = or i32 %46, 2
  store i32 %47, ptr %45, align 8, !tbaa !48
  br label %48

48:                                               ; preds = %41, %37, %20
  %49 = and i32 %1, 512
  %.not39.i.i = icmp eq i32 %49, 0
  br i1 %.not39.i.i, label %set_timefilter_stat.exit, label %50

50:                                               ; preds = %48
  %51 = and i32 %1, 1
  %.not40.i.i = icmp ne i32 %51, 0
  %52 = and i32 %1, 18
  %53 = icmp eq i32 %52, 16
  %or.cond46.i.i = or i1 %.not40.i.i, %53
  br i1 %or.cond46.i.i, label %54, label %61

54:                                               ; preds = %50
  %55 = getelementptr inbounds nuw i8, ptr %0, i64 264
  store i32 %1, ptr %55, align 8, !tbaa !58
  %56 = getelementptr inbounds nuw i8, ptr %0, i64 272
  store i64 %21, ptr %56, align 8, !tbaa !59
  %57 = getelementptr inbounds nuw i8, ptr %0, i64 280
  store i64 %22, ptr %57, align 8, !tbaa !60
  %58 = getelementptr inbounds nuw i8, ptr %0, i64 144
  %59 = load i32, ptr %58, align 8, !tbaa !48
  %60 = or i32 %59, 2
  store i32 %60, ptr %58, align 8, !tbaa !48
  br label %61

61:                                               ; preds = %54, %50
  %62 = and i32 %1, 2
  %.not41.i.i = icmp ne i32 %62, 0
  %63 = and i32 %1, 17
  %64 = icmp eq i32 %63, 16
  %or.cond48.i.i = or i1 %.not41.i.i, %64
  br i1 %or.cond48.i.i, label %65, label %set_timefilter_stat.exit

65:                                               ; preds = %61
  %66 = getelementptr inbounds nuw i8, ptr %0, i64 312
  store i32 %1, ptr %66, align 8, !tbaa !61
  %67 = getelementptr inbounds nuw i8, ptr %0, i64 320
  store i64 %21, ptr %67, align 8, !tbaa !62
  %68 = getelementptr inbounds nuw i8, ptr %0, i64 328
  store i64 %22, ptr %68, align 8, !tbaa !63
  %69 = getelementptr inbounds nuw i8, ptr %0, i64 144
  %70 = load i32, ptr %69, align 8, !tbaa !48
  %71 = or i32 %70, 2
  store i32 %71, ptr %69, align 8, !tbaa !48
  br label %set_timefilter_stat.exit

set_timefilter_stat.exit:                         ; preds = %65, %61, %48, %18, %12, %9
  %.0 = phi i32 [ -25, %9 ], [ -25, %12 ], [ -30, %18 ], [ 0, %48 ], [ 0, %61 ], [ 0, %65 ]
  call void @llvm.lifetime.end.p0(i64 144, ptr nonnull %4) #14
  ret i32 %.0
}